target datalayout = "e-m:e-p270:32:32-p271:32:32-p272:64:64-i64:64-i128:128-f80:128-n8:16:32:64-S128"
target triple = "x86_64-pc-linux-gnu"

%"class.icu_77::UMutex" = type { [40 x i8], %"struct.std::atomic", ptr }
%"struct.std::atomic" = type { %"struct.std::__atomic_base" }
%"struct.std::__atomic_base" = type { ptr }
%"class.icu_77::UnicodeString" = type { %"class.icu_77::Replaceable", %"union.icu_77::UnicodeString::StackBufferOrFields" }
%"class.icu_77::Replaceable" = type { %"class.icu_77::UObject" }
%"class.icu_77::UObject" = type { ptr }
%"union.icu_77::UnicodeString::StackBufferOrFields" = type { %struct.anon.0, [32 x i8] }
%struct.anon.0 = type { i16, i32, i32, ptr }
%"class.icu_77::ConstChar16Ptr" = type { ptr }
%"class.icu_77::TimeZoneFormat" = type { %"class.icu_77::Format", %"class.icu_77::Locale", [4 x i8], ptr, ptr, %"class.icu_77::UnicodeString", [6 x %"class.icu_77::UnicodeString"], [10 x i32], %"class.icu_77::UnicodeString", i32, %"class.icu_77::UnicodeString", %"class.icu_77::UnicodeString", [6 x ptr], i8, ptr }
%"class.icu_77::Format" = type { %"class.icu_77::UObject", ptr, ptr }
%"class.icu_77::Locale" = type <{ %"class.icu_77::UObject", [12 x i8], [6 x i8], [4 x i8], [2 x i8], i32, [4 x i8], ptr, [157 x i8], [3 x i8], ptr, i8, [7 x i8] }>

@_ZN6icu_77L5gLockE = internal global %"class.icu_77::UMutex" zeroinitializer, align 8

; Function Attrs: inlinehint mustprogress nounwind uwtable
define linkonce_odr void @_ZN6icu_7714ConstChar16PtrD2Ev(ptr noundef nonnull align 8 dereferenceable(8) %0) unnamed_addr #2 comdat align 2 {
  %2 = alloca ptr, align 8
  store ptr %0, ptr %2, align 8, !tbaa !68
  %3 = load ptr, ptr %2, align 8
  %4 = getelementptr inbounds nuw %"class.icu_77::ConstChar16Ptr", ptr %3, i32 0, i32 0
  %5 = load ptr, ptr %4, align 8, !tbaa !70
  call void asm sideeffect "", "rm,~{memory},~{dirflag},~{fpsr},~{flags}"(ptr %5) #15, !srcloc !72
  ret void
}

; Function Attrs: inlinehint mustprogress nounwind uwtable
define linkonce_odr void @_ZN6icu_7714ConstChar16PtrC2EPKDs(ptr noundef nonnull align 8 dereferenceable(8) %0, ptr noundef %1) unnamed_addr #2 comdat align 2 {
  %3 = alloca ptr, align 8
  %4 = alloca ptr, align 8
  store ptr %0, ptr %3, align 8, !tbaa !68
  store ptr %1, ptr %4, align 8, !tbaa !61
  %5 = load ptr, ptr %3, align 8
  %6 = getelementptr inbounds nuw %"class.icu_77::ConstChar16Ptr", ptr %5, i32 0, i32 0
  %7 = load ptr, ptr %4, align 8, !tbaa !61
  store ptr %7, ptr %6, align 8, !tbaa !70
  ret void
}

; Function Attrs: inlinehint mustprogress nounwind uwtable
define internal noundef signext i8 @_ZL9U_FAILURE10UErrorCode(i32 noundef %0) #2 {
  %2 = alloca i32, align 4
  store i32 %0, ptr %2, align 4, !tbaa !15
  %3 = load i32, ptr %2, align 4, !tbaa !15
  %4 = icmp sgt i32 %3, 0
  %5 = zext i1 %4 to i8
  ret i8 %5
}

; Function Attrs: mustprogress uwtable
define noundef ptr @_ZNK6icu_7714TimeZoneFormat23getTimeZoneGenericNamesER10UErrorCode(ptr noundef nonnull align 8 dereferenceable(1024) %0, ptr noundef nonnull align 4 dereferenceable(4) %1) #1 align 2 {
  %3 = alloca ptr, align 8
  %4 = alloca ptr, align 8
  %5 = alloca ptr, align 8
  %6 = alloca ptr, align 8
  store ptr %0, ptr %4, align 8, !tbaa !39
  store ptr %1, ptr %5, align 8, !tbaa !22
  %7 = load ptr, ptr %4, align 8
  %8 = load ptr, ptr %5, align 8, !tbaa !22
  %9 = load i32, ptr %8, align 4, !tbaa !15
  %10 = call noundef signext i8 @_ZL9U_FAILURE10UErrorCode(i32 noundef %9)
  %11 = icmp ne i8 %10, 0
  br i1 %11, label %12, label %13

12:                                               ; preds = %2
  store ptr null, ptr %3, align 8
  br label %26

13:                                               ; preds = %2
  call void @umtx_lock_77(ptr noundef @_ZN6icu_77L5gLockE)
  %14 = getelementptr inbounds nuw %"class.icu_77::TimeZoneFormat", ptr %7, i32 0, i32 4
  %15 = load ptr, ptr %14, align 8, !tbaa !54
  %16 = icmp eq ptr %15, null
  br i1 %16, label %17, label %23

17:                                               ; preds = %13
  call void @llvm.lifetime.start.p0(i64 8, ptr %6) #15
  store ptr %7, ptr %6, align 8, !tbaa !39
  %18 = getelementptr inbounds nuw %"class.icu_77::TimeZoneFormat", ptr %7, i32 0, i32 1
  %19 = load ptr, ptr %5, align 8, !tbaa !22
  %20 = call noundef ptr @_ZN6icu_7720TimeZoneGenericNames14createInstanceERKNS_6LocaleER10UErrorCode(ptr noundef nonnull align 8 dereferenceable(217) %18, ptr noundef nonnull align 4 dereferenceable(4) %19)
  %21 = load ptr, ptr %6, align 8, !tbaa !39
  %22 = getelementptr inbounds nuw %"class.icu_77::TimeZoneFormat", ptr %21, i32 0, i32 4
  store ptr %20, ptr %22, align 8, !tbaa !54
  call void @llvm.lifetime.end.p0(i64 8, ptr %6) #15
  br label %23

23:                                               ; preds = %17, %13
  call void @umtx_unlock_77(ptr noundef @_ZN6icu_77L5gLockE)
  %24 = getelementptr inbounds nuw %"class.icu_77::TimeZoneFormat", ptr %7, i32 0, i32 4
  %25 = load ptr, ptr %24, align 8, !tbaa !54
  store ptr %25, ptr %3, align 8
  br label %26

26:                                               ; preds = %23, %12
  %27 = load ptr, ptr %3, align 8
  ret ptr %27
}

; Function Attrs: mustprogress uwtable
define noundef nonnull align 8 dereferenceable(64) ptr @_ZNK6icu_7714TimeZoneFormat13formatGenericERKNS_8TimeZoneEidRNS_13UnicodeStringE(ptr noundef nonnull align 8 dereferenceable(1024) %0, ptr noundef nonnull align 8 dereferenceable(72) %1, i32 noundef %2, double noundef %3, ptr noundef nonnull align 8 dereferenceable(64) %4) #1 align 2 personality ptr @__gxx_personality_v0 {
  %6 = alloca ptr, align 8
  %7 = alloca ptr, align 8
  %8 = alloca ptr, align 8
  %9 = alloca i32, align 4
  %10 = alloca double, align 8
  %11 = alloca ptr, align 8
  %12 = alloca i32, align 4
  %13 = alloca ptr, align 8
  %14 = alloca i32, align 4
  %15 = alloca ptr, align 8
  %16 = alloca %"class.icu_77::UnicodeString", align 8
  %17 = alloca %"class.icu_77::ConstChar16Ptr", align 8
  %18 = alloca ptr, align 8
  %19 = alloca i32, align 4
  store ptr %0, ptr %7, align 8, !tbaa !39
  store ptr %1, ptr %8, align 8, !tbaa !98
  store i32 %2, ptr %9, align 4, !tbaa !14
  store double %3, ptr %10, align 8, !tbaa !100
  store ptr %4, ptr %11, align 8, !tbaa !33
  %20 = load ptr, ptr %7, align 8
  call void @llvm.lifetime.start.p0(i64 4, ptr %12) #15
  store i32 0, ptr %12, align 4, !tbaa !15
  call void @llvm.lifetime.start.p0(i64 8, ptr %13) #15
  %21 = call noundef ptr @_ZNK6icu_7714TimeZoneFormat23getTimeZoneGenericNamesER10UErrorCode(ptr noundef nonnull align 8 dereferenceable(1024) %20, ptr noundef nonnull align 4 dereferenceable(4) %12)
  store ptr %21, ptr %13, align 8, !tbaa !104
  %22 = load i32, ptr %12, align 4, !tbaa !15
  %23 = call noundef signext i8 @_ZL9U_FAILURE10UErrorCode(i32 noundef %22)
  %24 = icmp ne i8 %23, 0
  br i1 %24, label %25, label %28

25:                                               ; preds = %5
  %26 = load ptr, ptr %11, align 8, !tbaa !33
  call void @_ZN6icu_7713UnicodeString10setToBogusEv(ptr noundef nonnull align 8 dereferenceable(64) %26)
  %27 = load ptr, ptr %11, align 8, !tbaa !33
  store ptr %27, ptr %6, align 8
  store i32 1, ptr %14, align 4
  br label %63

28:                                               ; preds = %5
  %29 = load i32, ptr %9, align 4, !tbaa !14
  %30 = icmp eq i32 %29, 1
  br i1 %30, label %31, label %56

31:                                               ; preds = %28
  call void @llvm.lifetime.start.p0(i64 8, ptr %15) #15
  %32 = load ptr, ptr %8, align 8, !tbaa !98
  %33 = call noundef ptr @_ZN6icu_778ZoneMeta18getCanonicalCLDRIDERKNS_8TimeZoneE(ptr noundef nonnull align 8 dereferenceable(72) %32)
  store ptr %33, ptr %15, align 8, !tbaa !61
  %34 = load ptr, ptr %15, align 8, !tbaa !61
  %35 = icmp eq ptr %34, null
  br i1 %35, label %36, label %39

36:                                               ; preds = %31
  %37 = load ptr, ptr %11, align 8, !tbaa !33
  call void @_ZN6icu_7713UnicodeString10setToBogusEv(ptr noundef nonnull align 8 dereferenceable(64) %37)
  %38 = load ptr, ptr %11, align 8, !tbaa !33
  store ptr %38, ptr %6, align 8
  store i32 1, ptr %14, align 4
  br label %55

39:                                               ; preds = %31
  %40 = load ptr, ptr %13, align 8, !tbaa !104
  call void @llvm.lifetime.start.p0(i64 64, ptr %16) #15
  %41 = load ptr, ptr %15, align 8, !tbaa !61
  call void @_ZN6icu_7714ConstChar16PtrC2EPKDs(ptr noundef nonnull align 8 dereferenceable(8) %17, ptr noundef %41)
  invoke void @_ZN6icu_7713UnicodeStringC1EaNS_14ConstChar16PtrEi(ptr noundef nonnull align 8 dereferenceable(64) %16, i8 noundef signext 1, ptr noundef %17, i32 noundef -1)
          to label %42 unwind label %46

42:                                               ; preds = %39
  %43 = load ptr, ptr %11, align 8, !tbaa !33
  %44 = invoke noundef nonnull align 8 dereferenceable(64) ptr @_ZNK6icu_7720TimeZoneGenericNames22getGenericLocationNameERKNS_13UnicodeStringERS1_(ptr noundef nonnull align 8 dereferenceable(16) %40, ptr noundef nonnull align 8 dereferenceable(64) %16, ptr noundef nonnull align 8 dereferenceable(64) %43)
          to label %45 unwind label %50

45:                                               ; preds = %42
  store ptr %44, ptr %6, align 8
  call void @_ZN6icu_7713UnicodeStringD1Ev(ptr noundef nonnull align 8 dereferenceable(64) %16) #15
  call void @_ZN6icu_7714ConstChar16PtrD2Ev(ptr noundef nonnull align 8 dereferenceable(8) %17) #15
  call void @llvm.lifetime.end.p0(i64 64, ptr %16) #15
  store i32 1, ptr %14, align 4
  br label %55

46:                                               ; preds = %39
  %47 = landingpad { ptr, i32 }
          cleanup
  %48 = extractvalue { ptr, i32 } %47, 0
  store ptr %48, ptr %18, align 8
  %49 = extractvalue { ptr, i32 } %47, 1
  store i32 %49, ptr %19, align 4
  br label %54

50:                                               ; preds = %42
  %51 = landingpad { ptr, i32 }
          cleanup
  %52 = extractvalue { ptr, i32 } %51, 0
  store ptr %52, ptr %18, align 8
  %53 = extractvalue { ptr, i32 } %51, 1
  store i32 %53, ptr %19, align 4
  call void @_ZN6icu_7713UnicodeStringD1Ev(ptr noundef nonnull align 8 dereferenceable(64) %16) #15
  br label %54

54:                                               ; preds = %50, %46
  call void @_ZN6icu_7714ConstChar16PtrD2Ev(ptr noundef nonnull align 8 dereferenceable(8) %17) #15
  call void @llvm.lifetime.end.p0(i64 64, ptr %16) #15
  call void @llvm.lifetime.end.p0(i64 8, ptr %15) #15
  call void @llvm.lifetime.end.p0(i64 8, ptr %13) #15
  call void @llvm.lifetime.end.p0(i64 4, ptr %12) #15
  br label %65

55:                                               ; preds = %45, %36
  call void @llvm.lifetime.end.p0(i64 8, ptr %15) #15
  br label %63

56:                                               ; preds = %28
  %57 = load ptr, ptr %13, align 8, !tbaa !104
  %58 = load ptr, ptr %8, align 8, !tbaa !98
  %59 = load i32, ptr %9, align 4, !tbaa !14
  %60 = load double, ptr %10, align 8, !tbaa !100
  %61 = load ptr, ptr %11, align 8, !tbaa !33
  %62 = call noundef nonnull align 8 dereferenceable(64) ptr @_ZNK6icu_7720TimeZoneGenericNames14getDisplayNameERKNS_8TimeZoneE24UTimeZoneGenericNameTypedRNS_13UnicodeStringE(ptr noundef nonnull align 8 dereferenceable(16) %57, ptr noundef nonnull align 8 dereferenceable(72) %58, i32 noundef %59, double noundef %60, ptr noundef nonnull align 8 dereferenceable(64) %61)
  store ptr %62, ptr %6, align 8
  store i32 1, ptr %14, align 4
  br label %63

63:                                               ; preds = %56, %55, %25
  call void @llvm.lifetime.end.p0(i64 8, ptr %13) #15
  call void @llvm.lifetime.end.p0(i64 4, ptr %12) #15
  %64 = load ptr, ptr %6, align 8
  ret ptr %64

65:                                               ; preds = %54
  %66 = load ptr, ptr %18, align 8
  %67 = load i32, ptr %19, align 4
  %68 = insertvalue { ptr, i32 } poison, ptr %66, 0
  %69 = insertvalue { ptr, i32 } %68, i32 %67, 1
  resume { ptr, i32 } %69
}