; Function Attrs: mustprogress uwtable
define noundef nonnull align 8 dereferenceable(64) ptr @_ZNK6icu_7714TimeZoneFormat13formatGenericERKNS_8TimeZoneEidRNS_13UnicodeStringE(ptr noundef nonnull align 8 dereferenceable(1024) %0, ptr noundef nonnull align 8 dereferenceable(72) %1, i32 noundef %2, double noundef %3, ptr noundef nonnull align 8 dereferenceable(64) %4) local_unnamed_addr #1 align 2 personality ptr @__gxx_personality_v0 {
  %6 = alloca i32, align 4
  %7 = alloca %"class.icu_77::UnicodeString", align 8
  %8 = alloca %"class.icu_77::ConstChar16Ptr", align 8
  call void @llvm.lifetime.start.p0(i64 4, ptr nonnull %6) #22
  store i32 0, ptr %6, align 4, !tbaa !13
  tail call void @umtx_lock_77(ptr noundef nonnull @_ZN6icu_77L5gLockE)
  %9 = getelementptr inbounds nuw i8, ptr %0, i64 264
  %10 = load ptr, ptr %9, align 8, !tbaa !54
  %11 = icmp eq ptr %10, null
  br i1 %11, label %12, label %_ZNK6icu_7714TimeZoneFormat23getTimeZoneGenericNamesER10UErrorCode.exit

12:                                               ; preds = %5
  %13 = getelementptr inbounds nuw i8, ptr %0, i64 24
  %14 = call noundef ptr @_ZN6icu_7720TimeZoneGenericNames14createInstanceERKNS_6LocaleER10UErrorCode(ptr noundef nonnull align 8 dereferenceable(217) %13, ptr noundef nonnull align 4 dereferenceable(4) %6)
  store ptr %14, ptr %9, align 8, !tbaa !54
  br label %_ZNK6icu_7714TimeZoneFormat23getTimeZoneGenericNamesER10UErrorCode.exit

_ZNK6icu_7714TimeZoneFormat23getTimeZoneGenericNamesER10UErrorCode.exit: ; preds = %5, %12
  call void @umtx_unlock_77(ptr noundef nonnull @_ZN6icu_77L5gLockE)
  %15 = load ptr, ptr %9, align 8, !tbaa !54
  %16 = load i32, ptr %6, align 4, !tbaa !13
  %17 = icmp slt i32 %16, 1
  br i1 %17, label %19, label %18

18:                                               ; preds = %_ZNK6icu_7714TimeZoneFormat23getTimeZoneGenericNamesER10UErrorCode.exit
  call void @_ZN6icu_7713UnicodeString10setToBogusEv(ptr noundef nonnull align 8 dereferenceable(64) %4)
  br label %38

19:                                               ; preds = %_ZNK6icu_7714TimeZoneFormat23getTimeZoneGenericNamesER10UErrorCode.exit
  %20 = icmp eq i32 %2, 1
  br i1 %20, label %21, label %36

21:                                               ; preds = %19
  %22 = call noundef ptr @_ZN6icu_778ZoneMeta18getCanonicalCLDRIDERKNS_8TimeZoneE(ptr noundef nonnull align 8 dereferenceable(72) %1)
  %23 = icmp eq ptr %22, null
  br i1 %23, label %24, label %25

24:                                               ; preds = %21
  call void @_ZN6icu_7713UnicodeString10setToBogusEv(ptr noundef nonnull align 8 dereferenceable(64) %4)
  br label %38

25:                                               ; preds = %21
  call void @llvm.lifetime.start.p0(i64 64, ptr nonnull %7) #22
  store ptr %22, ptr %8, align 8, !tbaa !42
  invoke void @_ZN6icu_7713UnicodeStringC1EaNS_14ConstChar16PtrEi(ptr noundef nonnull align 8 dereferenceable(64) %7, i8 noundef signext 1, ptr noundef nonnull %8, i32 noundef -1)
          to label %26 unwind label %30

26:                                               ; preds = %25
  %27 = invoke noundef nonnull align 8 dereferenceable(64) ptr @_ZNK6icu_7720TimeZoneGenericNames22getGenericLocationNameERKNS_13UnicodeStringERS1_(ptr noundef nonnull align 8 dereferenceable(16) %15, ptr noundef nonnull align 8 dereferenceable(64) %7, ptr noundef nonnull align 8 dereferenceable(64) %4)
          to label %28 unwind label %32

28:                                               ; preds = %26
  call void @_ZN6icu_7713UnicodeStringD1Ev(ptr noundef nonnull align 8 dereferenceable(64) %7) #22
  %29 = load ptr, ptr %8, align 8, !tbaa !42
  call void asm sideeffect "", "rm,~{memory},~{dirflag},~{fpsr},~{flags}"(ptr %29) #22, !srcloc !44
  call void @llvm.lifetime.end.p0(i64 64, ptr nonnull %7) #22
  br label %38

30:                                               ; preds = %25
  %31 = landingpad { ptr, i32 }
          cleanup
  br label %34

32:                                               ; preds = %26
  %33 = landingpad { ptr, i32 }
          cleanup
  call void @_ZN6icu_7713UnicodeStringD1Ev(ptr noundef nonnull align 8 dereferenceable(64) %7) #22
  br label %34

34:                                               ; preds = %32, %30
  %.pn = phi { ptr, i32 } [ %33, %32 ], [ %31, %30 ]
  %35 = load ptr, ptr %8, align 8, !tbaa !42
  call void asm sideeffect "", "rm,~{memory},~{dirflag},~{fpsr},~{flags}"(ptr %35) #22, !srcloc !44
  call void @llvm.lifetime.end.p0(i64 64, ptr nonnull %7) #22
  call void @llvm.lifetime.end.p0(i64 4, ptr nonnull %6) #22
  resume { ptr, i32 } %.pn

36:                                               ; preds = %19
  %37 = call noundef nonnull align 8 dereferenceable(64) ptr @_ZNK6icu_7720TimeZoneGenericNames14getDisplayNameERKNS_8TimeZoneE24UTimeZoneGenericNameTypedRNS_13UnicodeStringE(ptr noundef nonnull align 8 dereferenceable(16) %15, ptr noundef nonnull align 8 dereferenceable(72) %1, i32 noundef %2, double noundef %3, ptr noundef nonnull align 8 dereferenceable(64) %4)
  br label %38

38:                                               ; preds = %24, %28, %36, %18
  %.019 = phi ptr [ %4, %18 ], [ %37, %36 ], [ %4, %24 ], [ %27, %28 ]
  call void @llvm.lifetime.end.p0(i64 4, ptr nonnull %6) #22
  ret ptr %.019
}